target datalayout = "e-m:e-p270:32:32-p271:32:32-p272:64:64-i64:64-i128:128-f80:128-n8:16:32:64-S128"
target triple = "x86_64-pc-linux-gnu"

%struct.AVChannelLayout = type { i32, i32, %union.anon.1, ptr }
%union.anon.1 = type { i64 }
%struct.AVFilterContext = type { ptr, ptr, ptr, ptr, ptr, i32, ptr, ptr, i32, ptr, ptr, i32, i32, ptr, ptr, ptr, ptr, i32, ptr, i32, i32 }
%struct.AVSyncTestContext = type { ptr, i32, i32, %struct.AVRational, i32, i64, i64, i64, float, i32, i32, i32, i32, i32, i32, i32, %struct.AVRational, %struct.AVRational, %struct.AVRational, %struct.AVRational, i64, [3 x [4 x i8]], %struct.FFDrawContext, %struct.FFDrawColor, %struct.FFDrawColor, %struct.FFDrawColor }
%struct.AVRational = type { i32, i32 }
%struct.FFDrawContext = type { ptr, i32, i32, [4 x i32], [4 x i8], [4 x i8], i8, i8, i32, i32, i32, [3 x [3 x double]] }
%struct.FFDrawColor = type { [4 x i8], [4 x %union.anon.2] }
%union.anon.2 = type { [4 x i32] }
%struct.AVFilterFormatsConfig = type { ptr, ptr, ptr, ptr, ptr }

@query_formats.sample_fmts = internal constant [2 x i32] [i32 2, i32 -1], align 4
@query_formats.layouts = internal constant [2 x %struct.AVChannelLayout] [%struct.AVChannelLayout { i32 1, i32 1, %union.anon.1 { i64 4 }, ptr null }, %struct.AVChannelLayout zeroinitializer], align 16

; Function Attrs: cold nounwind optsize uwtable
define internal i32 @query_formats(ptr noundef %0, ptr noundef %1, ptr noundef %2) #0 {
  %4 = alloca i32, align 4
  %5 = alloca ptr, align 8
  %6 = alloca ptr, align 8
  %7 = alloca ptr, align 8
  %8 = alloca ptr, align 8
  %9 = alloca [2 x i32], align 4
  %10 = alloca ptr, align 8
  %11 = alloca i32, align 4
  %12 = alloca i32, align 4
  store ptr %0, ptr %5, align 8, !tbaa !4
  store ptr %1, ptr %6, align 8, !tbaa !9
  store ptr %2, ptr %7, align 8, !tbaa !9
  call void @llvm.lifetime.start.p0(i64 8, ptr %8) #12
  %13 = load ptr, ptr %5, align 8, !tbaa !4
  %14 = getelementptr inbounds nuw %struct.AVFilterContext, ptr %13, i32 0, i32 9
  %15 = load ptr, ptr %14, align 8, !tbaa !12
  store ptr %15, ptr %8, align 8, !tbaa !24
  call void @llvm.lifetime.start.p0(i64 8, ptr %9) #12
  %16 = load ptr, ptr %8, align 8, !tbaa !24
  %17 = getelementptr inbounds nuw %struct.AVSyncTestContext, ptr %16, i32 0, i32 4
  %18 = load i32, ptr %17, align 8, !tbaa !26
  store i32 %18, ptr %9, align 4, !tbaa !34
  %19 = getelementptr inbounds i32, ptr %9, i64 1
  store i32 -1, ptr %19, align 4, !tbaa !34
  call void @llvm.lifetime.start.p0(i64 8, ptr %10) #12
  call void @llvm.lifetime.start.p0(i64 4, ptr %11) #12
  %20 = call ptr @ff_make_format_list(ptr noundef @query_formats.sample_fmts)
  store ptr %20, ptr %10, align 8, !tbaa !35
  %21 = load ptr, ptr %10, align 8, !tbaa !35
  %22 = icmp ne ptr %21, null
  br i1 %22, label %24, label %23

23:                                               ; preds = %3
  store i32 -12, ptr %4, align 4
  store i32 1, ptr %12, align 4
  br label %64

24:                                               ; preds = %3
  %25 = load ptr, ptr %10, align 8, !tbaa !35
  %26 = load ptr, ptr %7, align 8, !tbaa !9
  %27 = getelementptr inbounds ptr, ptr %26, i64 0
  %28 = load ptr, ptr %27, align 8, !tbaa !37
  %29 = getelementptr inbounds nuw %struct.AVFilterFormatsConfig, ptr %28, i32 0, i32 0
  %30 = call i32 @ff_formats_ref(ptr noundef %25, ptr noundef %29)
  store i32 %30, ptr %11, align 4, !tbaa !34
  %31 = icmp slt i32 %30, 0
  br i1 %31, label %32, label %34

32:                                               ; preds = %24
  %33 = load i32, ptr %11, align 4, !tbaa !34
  store i32 %33, ptr %4, align 4
  store i32 1, ptr %12, align 4
  br label %64

34:                                               ; preds = %24
  %35 = call ptr @ff_draw_supported_pixel_formats(i32 noundef 0)
  store ptr %35, ptr %10, align 8, !tbaa !35
  %36 = load ptr, ptr %10, align 8, !tbaa !35
  %37 = icmp ne ptr %36, null
  br i1 %37, label %39, label %38

38:                                               ; preds = %34
  store i32 -12, ptr %4, align 4
  store i32 1, ptr %12, align 4
  br label %64

39:                                               ; preds = %34
  %40 = load ptr, ptr %10, align 8, !tbaa !35
  %41 = load ptr, ptr %7, align 8, !tbaa !9
  %42 = getelementptr inbounds ptr, ptr %41, i64 1
  %43 = load ptr, ptr %42, align 8, !tbaa !37
  %44 = getelementptr inbounds nuw %struct.AVFilterFormatsConfig, ptr %43, i32 0, i32 0
  %45 = call i32 @ff_formats_ref(ptr noundef %40, ptr noundef %44)
  store i32 %45, ptr %11, align 4, !tbaa !34
  %46 = icmp slt i32 %45, 0
  br i1 %46, label %47, label %49

47:                                               ; preds = %39
  %48 = load i32, ptr %11, align 4, !tbaa !34
  store i32 %48, ptr %4, align 4
  store i32 1, ptr %12, align 4
  br label %64

49:                                               ; preds = %39
  %50 = load ptr, ptr %5, align 8, !tbaa !4
  %51 = load ptr, ptr %6, align 8, !tbaa !9
  %52 = load ptr, ptr %7, align 8, !tbaa !9
  %53 = call i32 @ff_set_common_channel_layouts_from_list2(ptr noundef %50, ptr noundef %51, ptr noundef %52, ptr noundef @query_formats.layouts)
  store i32 %53, ptr %11, align 4, !tbaa !34
  %54 = load i32, ptr %11, align 4, !tbaa !34
  %55 = icmp slt i32 %54, 0
  br i1 %55, label %56, label %58

56:                                               ; preds = %49
  %57 = load i32, ptr %11, align 4, !tbaa !34
  store i32 %57, ptr %4, align 4
  store i32 1, ptr %12, align 4
  br label %64

58:                                               ; preds = %49
  %59 = load ptr, ptr %5, align 8, !tbaa !4
  %60 = load ptr, ptr %6, align 8, !tbaa !9
  %61 = load ptr, ptr %7, align 8, !tbaa !9
  %62 = getelementptr inbounds [2 x i32], ptr %9, i64 0, i64 0
  %63 = call i32 @ff_set_common_samplerates_from_list2(ptr noundef %59, ptr noundef %60, ptr noundef %61, ptr noundef %62)
  store i32 %63, ptr %4, align 4
  store i32 1, ptr %12, align 4
  br label %64

64:                                               ; preds = %58, %56, %47, %38, %32, %23
  call void @llvm.lifetime.end.p0(i64 4, ptr %11) #12
  call void @llvm.lifetime.end.p0(i64 8, ptr %10) #12
  call void @llvm.lifetime.end.p0(i64 8, ptr %9) #12
  call void @llvm.lifetime.end.p0(i64 8, ptr %8) #12
  %65 = load i32, ptr %4, align 4
  ret i32 %65
}