; Function Attrs: cold nounwind optsize uwtable
define internal i32 @query_formats(ptr noundef %0, ptr noundef %1, ptr noundef %2) #0 {
  %4 = alloca [2 x i32], align 4
  %5 = getelementptr inbounds nuw i8, ptr %0, i64 72
  %6 = load ptr, ptr %5, align 8, !tbaa !4
  call void @llvm.lifetime.start.p0(i64 8, ptr nonnull %4) #10
  %7 = getelementptr inbounds nuw i8, ptr %6, i64 24
  %8 = load i32, ptr %7, align 8, !tbaa !20
  store i32 %8, ptr %4, align 4, !tbaa !28
  %9 = getelementptr inbounds nuw i8, ptr %4, i64 4
  store i32 -1, ptr %9, align 4, !tbaa !28
  %10 = tail call ptr @ff_make_format_list(ptr noundef nonnull @query_formats.sample_fmts) #10
  %.not = icmp eq ptr %10, null
  br i1 %.not, label %27, label %11

11:                                               ; preds = %3
  %12 = load ptr, ptr %2, align 8, !tbaa !29
  %13 = tail call i32 @ff_formats_ref(ptr noundef nonnull %10, ptr noundef %12) #10
  %14 = icmp slt i32 %13, 0
  br i1 %14, label %27, label %15

15:                                               ; preds = %11
  %16 = tail call ptr @ff_draw_supported_pixel_formats(i32 noundef 0) #10
  %.not23 = icmp eq ptr %16, null
  br i1 %.not23, label %27, label %17

17:                                               ; preds = %15
  %18 = getelementptr inbounds nuw i8, ptr %2, i64 8
  %19 = load ptr, ptr %18, align 8, !tbaa !29
  %20 = tail call i32 @ff_formats_ref(ptr noundef nonnull %16, ptr noundef %19) #10
  %21 = icmp slt i32 %20, 0
  br i1 %21, label %27, label %22

22:                                               ; preds = %17
  %23 = tail call i32 @ff_set_common_channel_layouts_from_list2(ptr noundef nonnull %0, ptr noundef %1, ptr noundef nonnull %2, ptr noundef nonnull @query_formats.layouts) #10
  %24 = icmp slt i32 %23, 0
  br i1 %24, label %27, label %25

25:                                               ; preds = %22
  %26 = call i32 @ff_set_common_samplerates_from_list2(ptr noundef nonnull %0, ptr noundef %1, ptr noundef nonnull %2, ptr noundef nonnull %4) #10
  br label %27

27:                                               ; preds = %22, %17, %15, %11, %3, %25
  %.0 = phi i32 [ %26, %25 ], [ -12, %3 ], [ %13, %11 ], [ -12, %15 ], [ %20, %17 ], [ %23, %22 ]
  call void @llvm.lifetime.end.p0(i64 8, ptr nonnull %4) #10
  ret i32 %.0
}